target datalayout = "e-m:e-p270:32:32-p271:32:32-p272:64:64-i64:64-i128:128-f80:128-n8:16:32:64-S128"
target triple = "x86_64-pc-linux-gnu"

@bio_err = external global ptr, align 8
@.str.67 = private unnamed_addr constant [25 x i8] c"Parameters already set!\0A\00", align 1
@.str.68 = private unnamed_addr constant [2 x i8] c"r\00", align 1
@.str.69 = private unnamed_addr constant [30 x i8] c"Can't open parameter file %s\0A\00", align 1
@.str.70 = private unnamed_addr constant [33 x i8] c"Error reading parameter file %s\0A\00", align 1
@.str.71 = private unnamed_addr constant [28 x i8] c"Error initializing context\0A\00", align 1

; Function Attrs: nounwind uwtable
define internal i32 @init_keygen_file(ptr noundef %0, ptr noundef %1, ptr noundef %2, ptr noundef %3, ptr noundef %4) #0 {
  %6 = alloca i32, align 4
  %7 = alloca ptr, align 8
  %8 = alloca ptr, align 8
  %9 = alloca ptr, align 8
  %10 = alloca ptr, align 8
  %11 = alloca ptr, align 8
  %12 = alloca ptr, align 8
  %13 = alloca ptr, align 8
  %14 = alloca ptr, align 8
  %15 = alloca i32, align 4
  store ptr %0, ptr %7, align 8, !tbaa !39
  store ptr %1, ptr %8, align 8, !tbaa !21
  store ptr %2, ptr %9, align 8, !tbaa !15
  store ptr %3, ptr %10, align 8, !tbaa !25
  store ptr %4, ptr %11, align 8, !tbaa !21
  call void @llvm.lifetime.start.p0(i64 8, ptr %12) #6
  call void @llvm.lifetime.start.p0(i64 8, ptr %13) #6
  store ptr null, ptr %13, align 8, !tbaa !17
  call void @llvm.lifetime.start.p0(i64 8, ptr %14) #6
  store ptr null, ptr %14, align 8, !tbaa !19
  %16 = load ptr, ptr %7, align 8, !tbaa !39
  %17 = load ptr, ptr %16, align 8, !tbaa !19
  %18 = icmp ne ptr %17, null
  br i1 %18, label %19, label %22

19:                                               ; preds = %5
  %20 = load ptr, ptr @bio_err, align 8, !tbaa !13
  %21 = call i32 @BIO_puts(ptr noundef %20, ptr noundef @.str.67)
  store i32 0, ptr %6, align 4
  store i32 1, ptr %15, align 4
  br label %75

22:                                               ; preds = %5
  %23 = load ptr, ptr %8, align 8, !tbaa !21
  %24 = call ptr @BIO_new_file(ptr noundef %23, ptr noundef @.str.68)
  store ptr %24, ptr %12, align 8, !tbaa !13
  %25 = load ptr, ptr %12, align 8, !tbaa !13
  %26 = icmp eq ptr %25, null
  br i1 %26, label %27, label %31

27:                                               ; preds = %22
  %28 = load ptr, ptr @bio_err, align 8, !tbaa !13
  %29 = load ptr, ptr %8, align 8, !tbaa !21
  %30 = call i32 (ptr, ptr, ...) @BIO_printf(ptr noundef %28, ptr noundef @.str.69, ptr noundef %29)
  store i32 0, ptr %6, align 4
  store i32 1, ptr %15, align 4
  br label %75

31:                                               ; preds = %22
  %32 = load ptr, ptr %12, align 8, !tbaa !13
  %33 = load ptr, ptr %10, align 8, !tbaa !25
  %34 = load ptr, ptr %11, align 8, !tbaa !21
  %35 = call ptr @PEM_read_bio_Parameters_ex(ptr noundef %32, ptr noundef null, ptr noundef %33, ptr noundef %34)
  store ptr %35, ptr %13, align 8, !tbaa !17
  %36 = load ptr, ptr %12, align 8, !tbaa !13
  %37 = call i32 @BIO_free(ptr noundef %36)
  %38 = load ptr, ptr %13, align 8, !tbaa !17
  %39 = icmp eq ptr %38, null
  br i1 %39, label %40, label %44

40:                                               ; preds = %31
  %41 = load ptr, ptr @bio_err, align 8, !tbaa !13
  %42 = load ptr, ptr %8, align 8, !tbaa !21
  %43 = call i32 (ptr, ptr, ...) @BIO_printf(ptr noundef %41, ptr noundef @.str.70, ptr noundef %42)
  store i32 0, ptr %6, align 4
  store i32 1, ptr %15, align 4
  br label %75

44:                                               ; preds = %31
  %45 = load ptr, ptr %9, align 8, !tbaa !15
  %46 = icmp ne ptr %45, null
  br i1 %46, label %47, label %51

47:                                               ; preds = %44
  %48 = load ptr, ptr %13, align 8, !tbaa !17
  %49 = load ptr, ptr %9, align 8, !tbaa !15
  %50 = call ptr @EVP_PKEY_CTX_new(ptr noundef %48, ptr noundef %49)
  store ptr %50, ptr %14, align 8, !tbaa !19
  br label %56

51:                                               ; preds = %44
  %52 = load ptr, ptr %10, align 8, !tbaa !25
  %53 = load ptr, ptr %13, align 8, !tbaa !17
  %54 = load ptr, ptr %11, align 8, !tbaa !21
  %55 = call ptr @EVP_PKEY_CTX_new_from_pkey(ptr noundef %52, ptr noundef %53, ptr noundef %54)
  store ptr %55, ptr %14, align 8, !tbaa !19
  br label %56

56:                                               ; preds = %51, %47
  %57 = load ptr, ptr %14, align 8, !tbaa !19
  %58 = icmp eq ptr %57, null
  br i1 %58, label %59, label %60

59:                                               ; preds = %56
  br label %69

60:                                               ; preds = %56
  %61 = load ptr, ptr %14, align 8, !tbaa !19
  %62 = call i32 @EVP_PKEY_keygen_init(ptr noundef %61)
  %63 = icmp sle i32 %62, 0
  br i1 %63, label %64, label %65

64:                                               ; preds = %60
  br label %69

65:                                               ; preds = %60
  %66 = load ptr, ptr %13, align 8, !tbaa !17
  call void @EVP_PKEY_free(ptr noundef %66)
  %67 = load ptr, ptr %14, align 8, !tbaa !19
  %68 = load ptr, ptr %7, align 8, !tbaa !39
  store ptr %67, ptr %68, align 8, !tbaa !19
  store i32 1, ptr %6, align 4
  store i32 1, ptr %15, align 4
  br label %75

69:                                               ; preds = %64, %59
  %70 = load ptr, ptr @bio_err, align 8, !tbaa !13
  %71 = call i32 @BIO_puts(ptr noundef %70, ptr noundef @.str.71)
  %72 = load ptr, ptr @bio_err, align 8, !tbaa !13
  call void @ERR_print_errors(ptr noundef %72)
  %73 = load ptr, ptr %14, align 8, !tbaa !19
  call void @EVP_PKEY_CTX_free(ptr noundef %73)
  %74 = load ptr, ptr %13, align 8, !tbaa !17
  call void @EVP_PKEY_free(ptr noundef %74)
  store i32 0, ptr %6, align 4
  store i32 1, ptr %15, align 4
  br label %75

75:                                               ; preds = %69, %65, %40, %27, %19
  call void @llvm.lifetime.end.p0(i64 8, ptr %14) #6
  call void @llvm.lifetime.end.p0(i64 8, ptr %13) #6
  call void @llvm.lifetime.end.p0(i64 8, ptr %12) #6
  %76 = load i32, ptr %6, align 4
  ret i32 %76
}