; Function Attrs: nounwind uwtable
define internal fastcc range(i32 0, 2) i32 @init_keygen_file(ptr noundef nonnull captures(none) %0, ptr noundef nonnull %1, ptr noundef %2, ptr noundef %3, ptr noundef %4) unnamed_addr #0 {
  %6 = load ptr, ptr %0, align 8, !tbaa !4
  %.not = icmp eq ptr %6, null
  br i1 %.not, label %10, label %7

7:                                                ; preds = %5
  %8 = load ptr, ptr @bio_err, align 8, !tbaa !17
  %9 = tail call i32 @BIO_puts(ptr noundef %8, ptr noundef nonnull @.str.67) #5
  br label %38

10:                                               ; preds = %5
  %11 = tail call ptr @BIO_new_file(ptr noundef nonnull %1, ptr noundef nonnull @.str.68) #5
  %12 = icmp eq ptr %11, null
  br i1 %12, label %13, label %16

13:                                               ; preds = %10
  %14 = load ptr, ptr @bio_err, align 8, !tbaa !17
  %15 = tail call i32 (ptr, ptr, ...) @BIO_printf(ptr noundef %14, ptr noundef nonnull @.str.69, ptr noundef nonnull %1) #5
  br label %38

16:                                               ; preds = %10
  %17 = tail call ptr @PEM_read_bio_Parameters_ex(ptr noundef nonnull %11, ptr noundef null, ptr noundef %3, ptr noundef %4) #5
  %18 = tail call i32 @BIO_free(ptr noundef nonnull %11) #5
  %19 = icmp eq ptr %17, null
  br i1 %19, label %20, label %23

20:                                               ; preds = %16
  %21 = load ptr, ptr @bio_err, align 8, !tbaa !17
  %22 = tail call i32 (ptr, ptr, ...) @BIO_printf(ptr noundef %21, ptr noundef nonnull @.str.70, ptr noundef nonnull %1) #5
  br label %38

23:                                               ; preds = %16
  %.not27 = icmp eq ptr %2, null
  br i1 %.not27, label %26, label %24

24:                                               ; preds = %23
  %25 = tail call ptr @EVP_PKEY_CTX_new(ptr noundef nonnull %17, ptr noundef nonnull %2) #5
  br label %28

26:                                               ; preds = %23
  %27 = tail call ptr @EVP_PKEY_CTX_new_from_pkey(ptr noundef %3, ptr noundef nonnull %17, ptr noundef %4) #5
  br label %28

28:                                               ; preds = %26, %24
  %.0 = phi ptr [ %25, %24 ], [ %27, %26 ]
  %29 = icmp eq ptr %.0, null
  br i1 %29, label %34, label %30

30:                                               ; preds = %28
  %31 = tail call i32 @EVP_PKEY_keygen_init(ptr noundef nonnull %.0) #5
  %32 = icmp slt i32 %31, 1
  br i1 %32, label %34, label %33

33:                                               ; preds = %30
  tail call void @EVP_PKEY_free(ptr noundef nonnull %17) #5
  store ptr %.0, ptr %0, align 8, !tbaa !4
  br label %38

34:                                               ; preds = %30, %28
  %35 = load ptr, ptr @bio_err, align 8, !tbaa !17
  %36 = tail call i32 @BIO_puts(ptr noundef %35, ptr noundef nonnull @.str.71) #5
  %37 = load ptr, ptr @bio_err, align 8, !tbaa !17
  tail call void @ERR_print_errors(ptr noundef %37) #5
  tail call void @EVP_PKEY_CTX_free(ptr noundef %.0) #5
  tail call void @EVP_PKEY_free(ptr noundef nonnull %17) #5
  br label %38

38:                                               ; preds = %34, %33, %20, %13, %7
  %.023 = phi i32 [ 0, %7 ], [ 0, %13 ], [ 0, %20 ], [ 0, %34 ], [ 1, %33 ]
  ret i32 %.023
}